target datalayout = "e-m:e-p270:32:32-p271:32:32-p272:64:64-i64:64-i128:128-f80:128-n8:16:32:64-S128"
target triple = "x86_64-pc-linux-gnu"

%struct.st_engine_pile = type { i32, ptr, ptr, i32 }

@.str = private unnamed_addr constant [37 x i8] c"../openssl/crypto/engine/eng_table.c\00", align 1

; Function Attrs: inlinehint nounwind uwtable
define internal void @sk_ENGINE_free(ptr noundef %0) #3 {
  %2 = alloca ptr, align 8
  store ptr %0, ptr %2, align 8, !tbaa !29
  %3 = load ptr, ptr %2, align 8, !tbaa !29
  call void @OPENSSL_sk_free(ptr noundef %3)
  ret void
}

; Function Attrs: nounwind uwtable
define internal void @int_cleanup_cb_doall(ptr noundef %0) #0 {
  %2 = alloca ptr, align 8
  store ptr %0, ptr %2, align 8, !tbaa !20
  %3 = load ptr, ptr %2, align 8, !tbaa !20
  %4 = icmp eq ptr %3, null
  br i1 %4, label %5, label %6

5:                                                ; preds = %1
  br label %21

6:                                                ; preds = %1
  %7 = load ptr, ptr %2, align 8, !tbaa !20
  %8 = getelementptr inbounds nuw %struct.st_engine_pile, ptr %7, i32 0, i32 1
  %9 = load ptr, ptr %8, align 8, !tbaa !23
  call void @sk_ENGINE_free(ptr noundef %9)
  %10 = load ptr, ptr %2, align 8, !tbaa !20
  %11 = getelementptr inbounds nuw %struct.st_engine_pile, ptr %10, i32 0, i32 2
  %12 = load ptr, ptr %11, align 8, !tbaa !24
  %13 = icmp ne ptr %12, null
  br i1 %13, label %14, label %19

14:                                               ; preds = %6
  %15 = load ptr, ptr %2, align 8, !tbaa !20
  %16 = getelementptr inbounds nuw %struct.st_engine_pile, ptr %15, i32 0, i32 2
  %17 = load ptr, ptr %16, align 8, !tbaa !24
  %18 = call i32 @engine_unlocked_finish(ptr noundef %17, i32 noundef 0)
  br label %19

19:                                               ; preds = %14, %6
  %20 = load ptr, ptr %2, align 8, !tbaa !20
  call void @CRYPTO_free(ptr noundef %20, ptr noundef @.str, i32 noundef 184)
  br label %21

21:                                               ; preds = %19, %5
  ret void
}