; Function Attrs: nounwind uwtable
define internal void @int_cleanup_cb_doall(ptr noundef %0) #2 {
  %2 = icmp eq ptr %0, null
  br i1 %2, label %11, label %3

3:                                                ; preds = %1
  %4 = getelementptr inbounds nuw i8, ptr %0, i64 8
  %5 = load ptr, ptr %4, align 8, !tbaa !16
  tail call void @OPENSSL_sk_free(ptr noundef %5) #7
  %6 = getelementptr inbounds nuw i8, ptr %0, i64 16
  %7 = load ptr, ptr %6, align 8, !tbaa !17
  %.not = icmp eq ptr %7, null
  br i1 %.not, label %10, label %8

8:                                                ; preds = %3
  %9 = tail call i32 @engine_unlocked_finish(ptr noundef nonnull %7, i32 noundef 0) #7
  br label %10

10:                                               ; preds = %8, %3
  tail call void @CRYPTO_free(ptr noundef nonnull %0, ptr noundef nonnull @.str, i32 noundef 184) #7
  br label %11

11:                                               ; preds = %1, %10
  ret void
}